ccopy_reg
_reconstructor
p0
(csklearn.svm.classes
SVC
p1
c__builtin__
object
p2
Ntp3
Rp4
(dp5
S'kernel'
p6
S'linear'
p7
sS'verbose'
p8
I00
sS'probability'
p9
I01
sS'classes_'
p10
cnumpy.core.multiarray
_reconstruct
p11
(cnumpy
ndarray
p12
(I0
tp13
S'b'
p14
tp15
Rp16
(I1
(L2L
tp17
cnumpy
dtype
p18
(S'O8'
p19
I0
I1
tp20
Rp21
(I3
S'|'
p22
NNNI-1
I-1
I63
tp23
bI00
(lp24
S'five'
p25
aS'four'
p26
atp27
bsS'support_'
p28
g11
(g12
(I0
tp29
g14
tp30
Rp31
(I1
(L3L
tp32
g18
(S'i4'
p33
I0
I1
tp34
Rp35
(I3
S'<'
p36
NNNI-1
I-1
I0
tp37
bI00
S'\n\x00\x00\x006\x00\x00\x00\x1a\x00\x00\x00'
p38
tp39
bsS'dual_coef_'
p40
g11
(g12
(I0
tp41
g14
tp42
Rp43
(I1
(L1L
L3L
tp44
g18
(S'f8'
p45
I0
I1
tp46
Rp47
(I3
S'<'
p48
NNNI-1
I-1
I0
tp49
bI00
S'"\x8f\x9c\xbe\x8c~T\xbf\xb7\xa3\xe1%\xf6<C\xbf\xfe`\x8d\xd1\x07\x1d^?'
p50
tp51
bsS'shrinking'
p52
I01
sS'class_weight'
p53
NsS'_gamma'
p54
F0.2
sS'probA_'
p55
g11
(g12
(I0
tp56
g14
tp57
Rp58
(I1
(L1L
tp59
g47
I00
S'\xb5\n:\x82$%\x06\xc0'
p60
tp61
bsS'_sparse'
p62
I00
sS'class_weight_'
p63
g11
(g12
(I0
tp64
g14
tp65
Rp66
(I1
(L2L
tp67
g47
I00
S'\x00\x00\x00\x00\x00\x00\xf0?\x00\x00\x00\x00\x00\x00\xf0?'
p68
tp69
bsS'random_state'
p70
NsS'_sklearn_version'
p71
S'0.20.4'
p72
sS'tol'
p73
F0.001
sS'coef0'
p74
F0.0
sS'nu'
p75
F0.0
sS'n_support_'
p76
g11
(g12
(I0
tp77
g14
tp78
Rp79
(I1
(L2L
tp80
g35
I00
S'\x02\x00\x00\x00\x01\x00\x00\x00'
p81
tp82
bsS'shape_fit_'
p83
(L77L
L5L
tp84
sS'C'
p85
F1.0
sS'support_vectors_'
p86
g11
(g12
(I0
tp87
g14
tp88
Rp89
(I1
(L3L
L5L
tp90
g47
I00
S'\xeb\xa8j\x82\xa8YU@To\rl\x95nU@\xa7a\xf8\x88\x98\xfeZ@\xce\x01\x829z\xa8Z@\xc2\x86\xa7W\xca\xe2X@[\x99\xf0K\xfdNW@\xaf%\xe4\x83\x9e\xddX@1\r\xc3G\xc4\xbaY@\xa3\xc7\xefm\xfa\xabX@:#J{\x83\xddV@F|\'f\xbd\xa4M@E\xf0\xbf\x95\xecjZ@\xfb\xb3\x1f)"\xa1[@\xa6\xd0y\x8d]\xceY@k\xb7]h\xae{W@'
p91
tp92
bsS'_dual_coef_'
p93
g11
(g12
(I0
tp94
g14
tp95
Rp96
(I1
(L1L
L3L
tp97
g47
I00
S'"\x8f\x9c\xbe\x8c~T?\xb7\xa3\xe1%\xf6<C?\xfe`\x8d\xd1\x07\x1d^\xbf'
p98
tp99
bsS'degree'
p100
I3
sS'epsilon'
p101
F0.0
sS'max_iter'
p102
I-1
sS'decision_function_shape'
p103
S'ovr'
p104
sS'fit_status_'
p105
I0
sS'_intercept_'
p106
g11
(g12
(I0
tp107
g14
tp108
Rp109
(I1
(L1L
tp110
g47
I00
S'3\x15P?c\x1b\xee\xbf'
p111
tp112
bsS'intercept_'
p113
g11
(g12
(I0
tp114
g14
tp115
Rp116
(I1
(L1L
tp117
g47
I00
S'3\x15P?c\x1b\xee?'
p118
tp119
bsS'probB_'
p120
g11
(g12
(I0
tp121
g14
tp122
Rp123
(I1
(L1L
tp124
g47
I00
S'[\x05p,\xce3\xc7\xbf'
p125
tp126
bsS'cache_size'
p127
I200
sS'gamma'
p128
S'auto_deprecated'
p129
sb.